; Function Attrs: mustprogress null_pointer_is_valid sspstrong uwtable
define void @_ZN15RtpPlayerDialog29on_actionMoveRight1_triggeredEv(ptr noundef readonly align 8 captures(none) dereferenceable_or_null(472) %0) local_unnamed_addr #0 align 2 {
  %2 = getelementptr inbounds nuw i8, ptr %0, i64 144
  %3 = load ptr, ptr %2, align 8
  %4 = getelementptr inbounds nuw i8, ptr %3, i64 312
  %5 = load ptr, ptr %4, align 8
  %6 = getelementptr inbounds nuw i8, ptr %5, i64 40
  %7 = load ptr, ptr %6, align 8
  %8 = getelementptr inbounds nuw i8, ptr %7, i64 64
  %9 = load ptr, ptr %8, align 8
  %10 = getelementptr inbounds nuw i8, ptr %9, i64 100
  %11 = load i32, ptr %10, align 4
  %12 = add i32 %11, 1
  %13 = getelementptr inbounds nuw i8, ptr %9, i64 92
  %14 = load i32, ptr %13, align 4
  %15 = sub i32 %12, %14
  %.sroa.2.0..sroa_idx.i.i = getelementptr inbounds nuw i8, ptr %7, i64 312
  %.sroa.2.0.copyload.i.i = load double, ptr %.sroa.2.0..sroa_idx.i.i, align 8
  %16 = getelementptr inbounds nuw i8, ptr %7, i64 304
  %.sroa.0.0.copyload.i.i = load double, ptr %16, align 8
  %17 = fsub double %.sroa.2.0.copyload.i.i, %.sroa.0.0.copyload.i.i
  %18 = sitofp i32 %15 to double
  %19 = fdiv double %17, %18
  tail call void @_ZN7QCPAxis9moveRangeEd(ptr noundef align 8 dereferenceable_or_null(472) %7, double noundef %19)
  tail call void @_ZN11QCustomPlot6replotENS_15RefreshPriorityE(ptr noundef align 8 dereferenceable_or_null(513) %5, i32 noundef 2)
  ret void
}